target datalayout = "e-m:e-p270:32:32-p271:32:32-p272:64:64-i64:64-i128:128-f80:128-n8:16:32:64-S128"
target triple = "x86_64-pc-linux-gnu"

@.str.5 = private unnamed_addr constant [10 x i8] c"lapd.sapi\00", align 1
@proto_register_lapd.ett = internal global [4 x ptr] [ptr @ett_lapd, ptr @ett_lapd_address, ptr @ett_lapd_control, ptr @ett_lapd_checksum], align 16
@.str.46 = private unnamed_addr constant [40 x i8] c"Link Access Procedure, Channel D (LAPD)\00", align 1
@.str.47 = private unnamed_addr constant [5 x i8] c"LAPD\00", align 1
@.str.48 = private unnamed_addr constant [5 x i8] c"lapd\00", align 1
@proto_lapd = internal global i32 0, align 4
@lapd_handle = internal global ptr null, align 8
@.str.49 = private unnamed_addr constant [10 x i8] c"lapd-phdr\00", align 1
@lapd_phdr_handle = internal global ptr null, align 8
@.str.50 = private unnamed_addr constant [11 x i8] c"linux-lapd\00", align 1
@linux_lapd_handle = internal global ptr null, align 8
@.str.51 = private unnamed_addr constant [15 x i8] c"lapd-bitstream\00", align 1
@lapd_bitstream_handle = internal global ptr null, align 8
@.str.52 = private unnamed_addr constant [10 x i8] c"LAPD SAPI\00", align 1
@lapd_sapi_dissector_table = internal global ptr null, align 8
@.str.53 = private unnamed_addr constant [14 x i8] c"lapd.gsm.sapi\00", align 1
@.str.54 = private unnamed_addr constant [14 x i8] c"LAPD GSM SAPI\00", align 1
@lapd_gsm_sapi_dissector_table = internal global ptr null, align 8
@.str.55 = private unnamed_addr constant [20 x i8] c"use_gsm_sapi_values\00", align 1
@.str.56 = private unnamed_addr constant [20 x i8] c"Use GSM SAPI values\00", align 1
@.str.57 = private unnamed_addr constant [42 x i8] c"Use SAPI values as specified in TS 48 056\00", align 1
@global_lapd_gsm_sapis = internal global i8 0, align 1
@.str.58 = private unnamed_addr constant [17 x i8] c"rtp_payload_type\00", align 1

; Function Attrs: null_pointer_is_valid sspstrong uwtable
define hidden void @proto_register_lapd() #0 {
  %1 = alloca ptr, align 8
  %2 = alloca ptr, align 8
  call void @llvm.lifetime.start.p0(i64 8, ptr %1) #12
  call void @llvm.lifetime.start.p0(i64 8, ptr %2) #12
  %3 = call i32 @proto_register_protocol(ptr noundef @.str.46, ptr noundef @.str.47, ptr noundef @.str.48)
  store i32 %3, ptr @proto_lapd, align 4
  %4 = load i32, ptr @proto_lapd, align 4
  call void @proto_register_field_array(i32 noundef %4, ptr noundef @proto_register_lapd.hf, i32 noundef 23)
  call void @proto_register_subtree_array(ptr noundef @proto_register_lapd.ett, i32 noundef 4)
  %5 = load i32, ptr @proto_lapd, align 4
  %6 = call ptr @expert_register_protocol(i32 noundef %5)
  store ptr %6, ptr %2, align 8
  %7 = load ptr, ptr %2, align 8
  call void @expert_register_field_array(ptr noundef %7, ptr noundef @proto_register_lapd.ei, i32 noundef 2)
  %8 = load i32, ptr @proto_lapd, align 4
  %9 = call ptr @register_dissector(ptr noundef @.str.48, ptr noundef @dissect_lapd, i32 noundef %8)
  store ptr %9, ptr @lapd_handle, align 8
  %10 = load i32, ptr @proto_lapd, align 4
  %11 = call ptr @register_dissector(ptr noundef @.str.49, ptr noundef @dissect_lapd_phdr, i32 noundef %10)
  store ptr %11, ptr @lapd_phdr_handle, align 8
  %12 = load i32, ptr @proto_lapd, align 4
  %13 = call ptr @register_dissector(ptr noundef @.str.50, ptr noundef @dissect_linux_lapd, i32 noundef %12)
  store ptr %13, ptr @linux_lapd_handle, align 8
  %14 = load i32, ptr @proto_lapd, align 4
  %15 = call ptr @register_dissector(ptr noundef @.str.51, ptr noundef @dissect_lapd_bitstream, i32 noundef %14)
  store ptr %15, ptr @lapd_bitstream_handle, align 8
  %16 = load i32, ptr @proto_lapd, align 4
  %17 = call ptr @register_dissector_table(ptr noundef @.str.5, ptr noundef @.str.52, i32 noundef %16, i32 noundef 5, i32 noundef 1)
  store ptr %17, ptr @lapd_sapi_dissector_table, align 8
  %18 = load i32, ptr @proto_lapd, align 4
  %19 = call ptr @register_dissector_table(ptr noundef @.str.53, ptr noundef @.str.54, i32 noundef %18, i32 noundef 5, i32 noundef 1)
  store ptr %19, ptr @lapd_gsm_sapi_dissector_table, align 8
  %20 = load i32, ptr @proto_lapd, align 4
  %21 = call ptr @prefs_register_protocol(i32 noundef %20, ptr noundef null)
  store ptr %21, ptr %1, align 8
  %22 = load ptr, ptr %1, align 8
  call void @prefs_register_bool_preference(ptr noundef %22, ptr noundef @.str.55, ptr noundef @.str.56, ptr noundef @.str.57, ptr noundef @global_lapd_gsm_sapis)
  %23 = load ptr, ptr %1, align 8
  call void @prefs_register_obsolete_preference(ptr noundef %23, ptr noundef @.str.58)
  call void @llvm.lifetime.end.p0(i64 8, ptr %2) #12
  call void @llvm.lifetime.end.p0(i64 8, ptr %1) #12
  ret void
}