; Function Attrs: null_pointer_is_valid sspstrong uwtable
define hidden void @proto_register_lapd() local_unnamed_addr #0 {
  %1 = tail call i32 @proto_register_protocol(ptr noundef nonnull @.str.46, ptr noundef nonnull @.str.47, ptr noundef nonnull @.str.48)
  store i32 %1, ptr @proto_lapd, align 4
  tail call void @proto_register_field_array(i32 noundef %1, ptr noundef nonnull @proto_register_lapd.hf, i32 noundef 23)
  tail call void @proto_register_subtree_array(ptr noundef nonnull @proto_register_lapd.ett, i32 noundef 4)
  %2 = load i32, ptr @proto_lapd, align 4
  %3 = tail call ptr @expert_register_protocol(i32 noundef %2)
  tail call void @expert_register_field_array(ptr noundef %3, ptr noundef nonnull @proto_register_lapd.ei, i32 noundef 2)
  %4 = load i32, ptr @proto_lapd, align 4
  %5 = tail call ptr @register_dissector(ptr noundef nonnull @.str.48, ptr noundef nonnull @dissect_lapd, i32 noundef %4)
  store ptr %5, ptr @lapd_handle, align 8
  %6 = load i32, ptr @proto_lapd, align 4
  %7 = tail call ptr @register_dissector(ptr noundef nonnull @.str.49, ptr noundef nonnull @dissect_lapd_phdr, i32 noundef %6)
  store ptr %7, ptr @lapd_phdr_handle, align 8
  %8 = load i32, ptr @proto_lapd, align 4
  %9 = tail call ptr @register_dissector(ptr noundef nonnull @.str.50, ptr noundef nonnull @dissect_linux_lapd, i32 noundef %8)
  store ptr %9, ptr @linux_lapd_handle, align 8
  %10 = load i32, ptr @proto_lapd, align 4
  %11 = tail call ptr @register_dissector(ptr noundef nonnull @.str.51, ptr noundef nonnull @dissect_lapd_bitstream, i32 noundef %10)
  store ptr %11, ptr @lapd_bitstream_handle, align 8
  %12 = load i32, ptr @proto_lapd, align 4
  %13 = tail call ptr @register_dissector_table(ptr noundef nonnull @.str.5, ptr noundef nonnull @.str.52, i32 noundef %12, i32 noundef 5, i32 noundef 1)
  store ptr %13, ptr @lapd_sapi_dissector_table, align 8
  %14 = load i32, ptr @proto_lapd, align 4
  %15 = tail call ptr @register_dissector_table(ptr noundef nonnull @.str.53, ptr noundef nonnull @.str.54, i32 noundef %14, i32 noundef 5, i32 noundef 1)
  store ptr %15, ptr @lapd_gsm_sapi_dissector_table, align 8
  %16 = load i32, ptr @proto_lapd, align 4
  %17 = tail call ptr @prefs_register_protocol(i32 noundef %16, ptr noundef null)
  tail call void @prefs_register_bool_preference(ptr noundef %17, ptr noundef nonnull @.str.55, ptr noundef nonnull @.str.56, ptr noundef nonnull @.str.57, ptr noundef nonnull @global_lapd_gsm_sapis)
  tail call void @prefs_register_obsolete_preference(ptr noundef %17, ptr noundef nonnull @.str.58)
  ret void
}